target datalayout = "e-m:e-p270:32:32-p271:32:32-p272:64:64-i64:64-i128:128-f80:128-n8:16:32:64-S128"
target triple = "x86_64-pc-linux-gnu"

%struct.jdwpPacket = type { %union.anon.0 }
%union.anon.0 = type { %struct.jdwpCmdPacket }
%struct.jdwpCmdPacket = type { i32, i32, i8, i8, i8, ptr }
%struct.jdwpReplyPacket = type { i32, i32, i8, i16, ptr }
%struct.jdwpTransportCallback = type { ptr, ptr }

@callback = internal global ptr null, align 8
@socketFD = internal global i32 -1, align 4
@.str.8 = private unnamed_addr constant [14 x i8] c"out of memory\00", align 1
@.str.40 = private unnamed_addr constant [15 x i8] c"packet is null\00", align 1
@.str.41 = private unnamed_addr constant [14 x i8] c"premature EOF\00", align 1
@.str.42 = private unnamed_addr constant [11 x i8] c"recv error\00", align 1
@.str.43 = private unnamed_addr constant [46 x i8] c"Badly formed packet received - invalid length\00", align 1

; Function Attrs: nounwind uwtable
define internal i32 @socketTransport_readPacket(ptr noundef %0, ptr noundef %1) #0 {
  %3 = alloca i32, align 4
  %4 = alloca ptr, align 8
  %5 = alloca ptr, align 8
  %6 = alloca i32, align 4
  %7 = alloca i32, align 4
  %8 = alloca i32, align 4
  store ptr %0, ptr %4, align 8
  store ptr %1, ptr %5, align 8
  %9 = load ptr, ptr %5, align 8
  %10 = icmp eq ptr %9, null
  br i1 %10, label %11, label %12

11:                                               ; preds = %2
  call void @setLastError(i32 noundef 103, ptr noundef @.str.40)
  store i32 103, ptr %3, align 4
  br label %175

12:                                               ; preds = %2
  %13 = load i32, ptr @socketFD, align 4
  %14 = call i32 @recv_fully(i32 noundef %13, ptr noundef %6, i32 noundef 4)
  store i32 %14, ptr %8, align 4
  %15 = load i32, ptr %8, align 4
  %16 = icmp eq i32 %15, 0
  br i1 %16, label %17, label %21

17:                                               ; preds = %12
  %18 = load ptr, ptr %5, align 8
  %19 = getelementptr inbounds %struct.jdwpPacket, ptr %18, i32 0, i32 0
  %20 = getelementptr inbounds %struct.jdwpCmdPacket, ptr %19, i32 0, i32 0
  store i32 0, ptr %20, align 8
  store i32 0, ptr %3, align 4
  br label %175

21:                                               ; preds = %12
  %22 = load i32, ptr %8, align 4
  %23 = sext i32 %22 to i64
  %24 = icmp ne i64 %23, 4
  br i1 %24, label %25, label %30

25:                                               ; preds = %21
  %26 = load i32, ptr %8, align 4
  %27 = icmp eq i32 %26, 0
  br i1 %27, label %28, label %29

28:                                               ; preds = %25
  call void @setLastError(i32 noundef 202, ptr noundef @.str.41)
  store i32 202, ptr %3, align 4
  br label %175

29:                                               ; preds = %25
  call void @setLastError(i32 noundef 202, ptr noundef @.str.42)
  store i32 202, ptr %3, align 4
  br label %175

30:                                               ; preds = %21
  %31 = load i32, ptr %6, align 4
  %32 = call i32 @dbgsysNetworkToHostLong(i32 noundef %31)
  store i32 %32, ptr %6, align 4
  %33 = load i32, ptr %6, align 4
  %34 = load ptr, ptr %5, align 8
  %35 = getelementptr inbounds %struct.jdwpPacket, ptr %34, i32 0, i32 0
  %36 = getelementptr inbounds %struct.jdwpCmdPacket, ptr %35, i32 0, i32 0
  store i32 %33, ptr %36, align 8
  %37 = load i32, ptr @socketFD, align 4
  %38 = load ptr, ptr %5, align 8
  %39 = getelementptr inbounds %struct.jdwpPacket, ptr %38, i32 0, i32 0
  %40 = getelementptr inbounds %struct.jdwpCmdPacket, ptr %39, i32 0, i32 1
  %41 = call i32 @recv_fully(i32 noundef %37, ptr noundef %40, i32 noundef 4)
  store i32 %41, ptr %8, align 4
  %42 = load i32, ptr %8, align 4
  %43 = icmp slt i32 %42, 4
  br i1 %43, label %44, label %49

44:                                               ; preds = %30
  %45 = load i32, ptr %8, align 4
  %46 = icmp eq i32 %45, 0
  br i1 %46, label %47, label %48

47:                                               ; preds = %44
  call void @setLastError(i32 noundef 202, ptr noundef @.str.41)
  store i32 202, ptr %3, align 4
  br label %175

48:                                               ; preds = %44
  call void @setLastError(i32 noundef 202, ptr noundef @.str.42)
  store i32 202, ptr %3, align 4
  br label %175

49:                                               ; preds = %30
  %50 = load ptr, ptr %5, align 8
  %51 = getelementptr inbounds %struct.jdwpPacket, ptr %50, i32 0, i32 0
  %52 = getelementptr inbounds %struct.jdwpCmdPacket, ptr %51, i32 0, i32 1
  %53 = load i32, ptr %52, align 4
  %54 = call i32 @dbgsysNetworkToHostLong(i32 noundef %53)
  %55 = load ptr, ptr %5, align 8
  %56 = getelementptr inbounds %struct.jdwpPacket, ptr %55, i32 0, i32 0
  %57 = getelementptr inbounds %struct.jdwpCmdPacket, ptr %56, i32 0, i32 1
  store i32 %54, ptr %57, align 4
  %58 = load i32, ptr @socketFD, align 4
  %59 = load ptr, ptr %5, align 8
  %60 = getelementptr inbounds %struct.jdwpPacket, ptr %59, i32 0, i32 0
  %61 = getelementptr inbounds %struct.jdwpCmdPacket, ptr %60, i32 0, i32 2
  %62 = call i32 @recv_fully(i32 noundef %58, ptr noundef %61, i32 noundef 1)
  store i32 %62, ptr %8, align 4
  %63 = load i32, ptr %8, align 4
  %64 = icmp slt i32 %63, 1
  br i1 %64, label %65, label %70

65:                                               ; preds = %49
  %66 = load i32, ptr %8, align 4
  %67 = icmp eq i32 %66, 0
  br i1 %67, label %68, label %69

68:                                               ; preds = %65
  call void @setLastError(i32 noundef 202, ptr noundef @.str.41)
  store i32 202, ptr %3, align 4
  br label %175

69:                                               ; preds = %65
  call void @setLastError(i32 noundef 202, ptr noundef @.str.42)
  store i32 202, ptr %3, align 4
  br label %175

70:                                               ; preds = %49
  %71 = load ptr, ptr %5, align 8
  %72 = getelementptr inbounds %struct.jdwpPacket, ptr %71, i32 0, i32 0
  %73 = getelementptr inbounds %struct.jdwpCmdPacket, ptr %72, i32 0, i32 2
  %74 = load i8, ptr %73, align 8
  %75 = sext i8 %74 to i32
  %76 = and i32 %75, 128
  %77 = icmp ne i32 %76, 0
  br i1 %77, label %78, label %92

78:                                               ; preds = %70
  %79 = load i32, ptr @socketFD, align 4
  %80 = load ptr, ptr %5, align 8
  %81 = getelementptr inbounds %struct.jdwpPacket, ptr %80, i32 0, i32 0
  %82 = getelementptr inbounds %struct.jdwpReplyPacket, ptr %81, i32 0, i32 3
  %83 = call i32 @recv_fully(i32 noundef %79, ptr noundef %82, i32 noundef 1)
  store i32 %83, ptr %8, align 4
  %84 = load i32, ptr %8, align 4
  %85 = icmp slt i32 %84, 2
  br i1 %85, label %86, label %91

86:                                               ; preds = %78
  %87 = load i32, ptr %8, align 4
  %88 = icmp eq i32 %87, 0
  br i1 %88, label %89, label %90

89:                                               ; preds = %86
  call void @setLastError(i32 noundef 202, ptr noundef @.str.41)
  store i32 202, ptr %3, align 4
  br label %175

90:                                               ; preds = %86
  call void @setLastError(i32 noundef 202, ptr noundef @.str.42)
  store i32 202, ptr %3, align 4
  br label %175

91:                                               ; preds = %78
  br label %119

92:                                               ; preds = %70
  %93 = load i32, ptr @socketFD, align 4
  %94 = load ptr, ptr %5, align 8
  %95 = getelementptr inbounds %struct.jdwpPacket, ptr %94, i32 0, i32 0
  %96 = getelementptr inbounds %struct.jdwpCmdPacket, ptr %95, i32 0, i32 3
  %97 = call i32 @recv_fully(i32 noundef %93, ptr noundef %96, i32 noundef 1)
  store i32 %97, ptr %8, align 4
  %98 = load i32, ptr %8, align 4
  %99 = icmp slt i32 %98, 1
  br i1 %99, label %100, label %105

100:                                              ; preds = %92
  %101 = load i32, ptr %8, align 4
  %102 = icmp eq i32 %101, 0
  br i1 %102, label %103, label %104

103:                                              ; preds = %100
  call void @setLastError(i32 noundef 202, ptr noundef @.str.41)
  store i32 202, ptr %3, align 4
  br label %175

104:                                              ; preds = %100
  call void @setLastError(i32 noundef 202, ptr noundef @.str.42)
  store i32 202, ptr %3, align 4
  br label %175

105:                                              ; preds = %92
  %106 = load i32, ptr @socketFD, align 4
  %107 = load ptr, ptr %5, align 8
  %108 = getelementptr inbounds %struct.jdwpPacket, ptr %107, i32 0, i32 0
  %109 = getelementptr inbounds %struct.jdwpCmdPacket, ptr %108, i32 0, i32 4
  %110 = call i32 @recv_fully(i32 noundef %106, ptr noundef %109, i32 noundef 1)
  store i32 %110, ptr %8, align 4
  %111 = load i32, ptr %8, align 4
  %112 = icmp slt i32 %111, 1
  br i1 %112, label %113, label %118

113:                                              ; preds = %105
  %114 = load i32, ptr %8, align 4
  %115 = icmp eq i32 %114, 0
  br i1 %115, label %116, label %117

116:                                              ; preds = %113
  call void @setLastError(i32 noundef 202, ptr noundef @.str.41)
  store i32 202, ptr %3, align 4
  br label %175

117:                                              ; preds = %113
  call void @setLastError(i32 noundef 202, ptr noundef @.str.42)
  store i32 202, ptr %3, align 4
  br label %175

118:                                              ; preds = %105
  br label %119

119:                                              ; preds = %118, %91
  %120 = load i32, ptr %6, align 4
  %121 = sext i32 %120 to i64
  %122 = sub i64 %121, 11
  %123 = trunc i64 %122 to i32
  store i32 %123, ptr %7, align 4
  %124 = load i32, ptr %7, align 4
  %125 = icmp slt i32 %124, 0
  br i1 %125, label %126, label %127

126:                                              ; preds = %119
  call void @setLastError(i32 noundef 0, ptr noundef @.str.43)
  store i32 202, ptr %3, align 4
  br label %175

127:                                              ; preds = %119
  %128 = load i32, ptr %7, align 4
  %129 = icmp eq i32 %128, 0
  br i1 %129, label %130, label %134

130:                                              ; preds = %127
  %131 = load ptr, ptr %5, align 8
  %132 = getelementptr inbounds %struct.jdwpPacket, ptr %131, i32 0, i32 0
  %133 = getelementptr inbounds %struct.jdwpCmdPacket, ptr %132, i32 0, i32 5
  store ptr null, ptr %133, align 8
  br label %173

134:                                              ; preds = %127
  %135 = load ptr, ptr @callback, align 8
  %136 = getelementptr inbounds %struct.jdwpTransportCallback, ptr %135, i32 0, i32 0
  %137 = load ptr, ptr %136, align 8
  %138 = load i32, ptr %7, align 4
  %139 = call ptr %137(i32 noundef %138)
  %140 = load ptr, ptr %5, align 8
  %141 = getelementptr inbounds %struct.jdwpPacket, ptr %140, i32 0, i32 0
  %142 = getelementptr inbounds %struct.jdwpCmdPacket, ptr %141, i32 0, i32 5
  store ptr %139, ptr %142, align 8
  %143 = load ptr, ptr %5, align 8
  %144 = getelementptr inbounds %struct.jdwpPacket, ptr %143, i32 0, i32 0
  %145 = getelementptr inbounds %struct.jdwpCmdPacket, ptr %144, i32 0, i32 5
  %146 = load ptr, ptr %145, align 8
  %147 = icmp eq ptr %146, null
  br i1 %147, label %148, label %149

148:                                              ; preds = %134
  call void @setLastError(i32 noundef 110, ptr noundef @.str.8)
  store i32 110, ptr %3, align 4
  br label %175

149:                                              ; preds = %134
  %150 = load i32, ptr @socketFD, align 4
  %151 = load ptr, ptr %5, align 8
  %152 = getelementptr inbounds %struct.jdwpPacket, ptr %151, i32 0, i32 0
  %153 = getelementptr inbounds %struct.jdwpCmdPacket, ptr %152, i32 0, i32 5
  %154 = load ptr, ptr %153, align 8
  %155 = load i32, ptr %7, align 4
  %156 = call i32 @recv_fully(i32 noundef %150, ptr noundef %154, i32 noundef %155)
  store i32 %156, ptr %8, align 4
  %157 = load i32, ptr %8, align 4
  %158 = load i32, ptr %7, align 4
  %159 = icmp slt i32 %157, %158
  br i1 %159, label %160, label %172

160:                                              ; preds = %149
  %161 = load ptr, ptr @callback, align 8
  %162 = getelementptr inbounds %struct.jdwpTransportCallback, ptr %161, i32 0, i32 1
  %163 = load ptr, ptr %162, align 8
  %164 = load ptr, ptr %5, align 8
  %165 = getelementptr inbounds %struct.jdwpPacket, ptr %164, i32 0, i32 0
  %166 = getelementptr inbounds %struct.jdwpCmdPacket, ptr %165, i32 0, i32 5
  %167 = load ptr, ptr %166, align 8
  call void %163(ptr noundef %167)
  %168 = load i32, ptr %8, align 4
  %169 = icmp eq i32 %168, 0
  br i1 %169, label %170, label %171

170:                                              ; preds = %160
  call void @setLastError(i32 noundef 202, ptr noundef @.str.41)
  store i32 202, ptr %3, align 4
  br label %175

171:                                              ; preds = %160
  call void @setLastError(i32 noundef 202, ptr noundef @.str.42)
  store i32 202, ptr %3, align 4
  br label %175

172:                                              ; preds = %149
  br label %173

173:                                              ; preds = %172, %130
  br label %174

174:                                              ; preds = %173
  store i32 0, ptr %3, align 4
  br label %175

175:                                              ; preds = %174, %171, %170, %148, %126, %117, %116, %104, %103, %90, %89, %69, %68, %48, %47, %29, %28, %17, %11
  %176 = load i32, ptr %3, align 4
  ret i32 %176
}