; Function Attrs: nounwind uwtable
define internal range(i32 0, 203) i32 @socketTransport_readPacket(ptr nocapture readnone %0, ptr noundef %1) #0 {
  %3 = alloca i32, align 4
  %4 = icmp eq ptr %1, null
  br i1 %4, label %5, label %18

5:                                                ; preds = %2
  %6 = load i32, ptr @tlsIndex, align 4
  %7 = tail call ptr @dbgsysTlsGet(i32 noundef %6) #13
  %.not.i = icmp eq ptr %7, null
  br i1 %.not.i, label %12, label %8

8:                                                ; preds = %5
  %9 = load ptr, ptr @callback, align 8
  %10 = getelementptr inbounds i8, ptr %9, i64 8
  %11 = load ptr, ptr %10, align 8
  tail call void %11(ptr noundef nonnull %7) #13
  br label %12

12:                                               ; preds = %8, %5
  %13 = load ptr, ptr @callback, align 8
  %14 = load ptr, ptr %13, align 8
  %15 = tail call ptr %14(i32 noundef 15) #13
  %.not21.i = icmp eq ptr %15, null
  br i1 %.not21.i, label %setLastError.exit, label %16

16:                                               ; preds = %12
  tail call void @llvm.memcpy.p0.p0.i64(ptr noundef nonnull align 1 dereferenceable(15) %15, ptr noundef nonnull readonly align 1 dereferenceable(15) @.str.40, i64 15, i1 false) #13
  br label %setLastError.exit

setLastError.exit:                                ; preds = %12, %16
  %17 = load i32, ptr @tlsIndex, align 4
  tail call void @dbgsysTlsPut(i32 noundef %17, ptr noundef %15) #13
  br label %148

18:                                               ; preds = %2
  %19 = load i32, ptr @socketFD, align 4
  br label %.lr.ph.i

.lr.ph.i:                                         ; preds = %28, %18
  %.01316.i = phi i32 [ %29, %28 ], [ 0, %18 ]
  %20 = zext nneg i32 %.01316.i to i64
  %21 = getelementptr inbounds i8, ptr %3, i64 %20
  %22 = sub nsw i32 4, %.01316.i
  %23 = zext nneg i32 %22 to i64
  %24 = call i32 @dbgsysRecv(i32 noundef %19, ptr noundef nonnull %21, i64 noundef %23, i32 noundef 0) #13
  %25 = icmp slt i32 %24, 0
  br i1 %25, label %recv_fully.exit, label %26

26:                                               ; preds = %.lr.ph.i
  %27 = icmp eq i32 %24, 0
  br i1 %27, label %recv_fully.exit, label %28

28:                                               ; preds = %26
  %29 = add nuw nsw i32 %24, %.01316.i
  %30 = icmp slt i32 %29, 4
  br i1 %30, label %.lr.ph.i, label %recv_fully.exit, !llvm.loop !15

recv_fully.exit:                                  ; preds = %.lr.ph.i, %26, %28
  %.0.i47 = phi i32 [ %29, %28 ], [ %.01316.i, %26 ], [ %24, %.lr.ph.i ]
  switch i32 %.0.i47, label %32 [
    i32 0, label %31
    i32 4, label %33
  ]

31:                                               ; preds = %recv_fully.exit
  store i32 0, ptr %1, align 8
  br label %148

32:                                               ; preds = %recv_fully.exit
  call fastcc void @setLastError(i32 noundef 202, ptr noundef nonnull @.str.42)
  br label %148

33:                                               ; preds = %recv_fully.exit
  %34 = load i32, ptr %3, align 4
  %35 = call i32 @dbgsysNetworkToHostLong(i32 noundef %34) #13
  store i32 %35, ptr %3, align 4
  store i32 %35, ptr %1, align 8
  %36 = load i32, ptr @socketFD, align 4
  %37 = getelementptr inbounds i8, ptr %1, i64 4
  br label %.lr.ph.i48

.lr.ph.i48:                                       ; preds = %46, %33
  %.01316.i49 = phi i32 [ %47, %46 ], [ 0, %33 ]
  %38 = zext nneg i32 %.01316.i49 to i64
  %39 = getelementptr inbounds i8, ptr %37, i64 %38
  %40 = sub nsw i32 4, %.01316.i49
  %41 = zext nneg i32 %40 to i64
  %42 = call i32 @dbgsysRecv(i32 noundef %36, ptr noundef nonnull %39, i64 noundef %41, i32 noundef 0) #13
  %43 = icmp slt i32 %42, 0
  br i1 %43, label %.thread, label %44

44:                                               ; preds = %.lr.ph.i48
  %45 = icmp eq i32 %42, 0
  br i1 %45, label %49, label %46

46:                                               ; preds = %44
  %47 = add nuw nsw i32 %42, %.01316.i49
  %48 = icmp slt i32 %47, 4
  br i1 %48, label %.lr.ph.i48, label %recv_fully.exit51, !llvm.loop !15

49:                                               ; preds = %44
  %50 = icmp eq i32 %.01316.i49, 0
  br i1 %50, label %51, label %.thread

51:                                               ; preds = %49
  call fastcc void @setLastError(i32 noundef 202, ptr noundef nonnull @.str.41)
  br label %148

.thread:                                          ; preds = %.lr.ph.i48, %49
  call fastcc void @setLastError(i32 noundef 202, ptr noundef nonnull @.str.42)
  br label %148

recv_fully.exit51:                                ; preds = %46
  %52 = load i32, ptr %37, align 4
  %53 = call i32 @dbgsysNetworkToHostLong(i32 noundef %52) #13
  store i32 %53, ptr %37, align 4
  %54 = load i32, ptr @socketFD, align 4
  %55 = getelementptr inbounds i8, ptr %1, i64 8
  br label %.lr.ph.i52

.lr.ph.i52:                                       ; preds = %64, %recv_fully.exit51
  %.01316.i53 = phi i32 [ %65, %64 ], [ 0, %recv_fully.exit51 ]
  %56 = zext nneg i32 %.01316.i53 to i64
  %57 = getelementptr inbounds i8, ptr %55, i64 %56
  %58 = sub nsw i32 1, %.01316.i53
  %59 = zext nneg i32 %58 to i64
  %60 = call i32 @dbgsysRecv(i32 noundef %54, ptr noundef nonnull %57, i64 noundef %59, i32 noundef 0) #13
  %61 = icmp slt i32 %60, 0
  br i1 %61, label %.thread73, label %62

62:                                               ; preds = %.lr.ph.i52
  %63 = icmp eq i32 %60, 0
  br i1 %63, label %67, label %64

64:                                               ; preds = %62
  %65 = add nuw nsw i32 %60, %.01316.i53
  %66 = icmp slt i32 %65, 1
  br i1 %66, label %.lr.ph.i52, label %recv_fully.exit55, !llvm.loop !15

67:                                               ; preds = %62
  %68 = icmp eq i32 %.01316.i53, 0
  br i1 %68, label %69, label %.thread73

69:                                               ; preds = %67
  call fastcc void @setLastError(i32 noundef 202, ptr noundef nonnull @.str.41)
  br label %148

.thread73:                                        ; preds = %.lr.ph.i52, %67
  call fastcc void @setLastError(i32 noundef 202, ptr noundef nonnull @.str.42)
  br label %148

recv_fully.exit55:                                ; preds = %64
  %70 = load i8, ptr %55, align 8
  %.not46 = icmp sgt i8 %70, -1
  %71 = load i32, ptr @socketFD, align 4
  br i1 %.not46, label %89, label %72

72:                                               ; preds = %recv_fully.exit55
  %73 = getelementptr inbounds i8, ptr %1, i64 10
  br label %.lr.ph.i56

.lr.ph.i56:                                       ; preds = %82, %72
  %.01316.i57 = phi i32 [ %83, %82 ], [ 0, %72 ]
  %74 = zext nneg i32 %.01316.i57 to i64
  %75 = getelementptr inbounds i8, ptr %73, i64 %74
  %76 = sub nsw i32 1, %.01316.i57
  %77 = zext nneg i32 %76 to i64
  %78 = call i32 @dbgsysRecv(i32 noundef %71, ptr noundef nonnull %75, i64 noundef %77, i32 noundef 0) #13
  %79 = icmp slt i32 %78, 0
  br i1 %79, label %.thread79, label %80

80:                                               ; preds = %.lr.ph.i56
  %81 = icmp eq i32 %78, 0
  br i1 %81, label %86, label %82

82:                                               ; preds = %80
  %83 = add nuw nsw i32 %78, %.01316.i57
  %84 = icmp slt i32 %83, 1
  br i1 %84, label %.lr.ph.i56, label %recv_fully.exit59, !llvm.loop !15

recv_fully.exit59:                                ; preds = %82
  %85 = icmp eq i32 %83, 1
  br i1 %85, label %.thread79, label %recv_fully.exit67

86:                                               ; preds = %80
  %87 = icmp eq i32 %.01316.i57, 0
  br i1 %87, label %88, label %.thread79

88:                                               ; preds = %86
  call fastcc void @setLastError(i32 noundef 202, ptr noundef nonnull @.str.41)
  br label %148

.thread79:                                        ; preds = %.lr.ph.i56, %recv_fully.exit59, %86
  call fastcc void @setLastError(i32 noundef 202, ptr noundef nonnull @.str.42)
  br label %148

89:                                               ; preds = %recv_fully.exit55
  %90 = getelementptr inbounds i8, ptr %1, i64 9
  br label %.lr.ph.i60

.lr.ph.i60:                                       ; preds = %99, %89
  %.01316.i61 = phi i32 [ %100, %99 ], [ 0, %89 ]
  %91 = zext nneg i32 %.01316.i61 to i64
  %92 = getelementptr inbounds i8, ptr %90, i64 %91
  %93 = sub nsw i32 1, %.01316.i61
  %94 = zext nneg i32 %93 to i64
  %95 = call i32 @dbgsysRecv(i32 noundef %71, ptr noundef nonnull %92, i64 noundef %94, i32 noundef 0) #13
  %96 = icmp slt i32 %95, 0
  br i1 %96, label %.thread83, label %97

97:                                               ; preds = %.lr.ph.i60
  %98 = icmp eq i32 %95, 0
  br i1 %98, label %102, label %99

99:                                               ; preds = %97
  %100 = add nuw nsw i32 %95, %.01316.i61
  %101 = icmp slt i32 %100, 1
  br i1 %101, label %.lr.ph.i60, label %recv_fully.exit63, !llvm.loop !15

102:                                              ; preds = %97
  %103 = icmp eq i32 %.01316.i61, 0
  br i1 %103, label %104, label %.thread83

104:                                              ; preds = %102
  call fastcc void @setLastError(i32 noundef 202, ptr noundef nonnull @.str.41)
  br label %148

.thread83:                                        ; preds = %.lr.ph.i60, %102
  call fastcc void @setLastError(i32 noundef 202, ptr noundef nonnull @.str.42)
  br label %148

recv_fully.exit63:                                ; preds = %99
  %105 = load i32, ptr @socketFD, align 4
  %106 = getelementptr inbounds i8, ptr %1, i64 10
  br label %.lr.ph.i64

.lr.ph.i64:                                       ; preds = %115, %recv_fully.exit63
  %.01316.i65 = phi i32 [ %116, %115 ], [ 0, %recv_fully.exit63 ]
  %107 = zext nneg i32 %.01316.i65 to i64
  %108 = getelementptr inbounds i8, ptr %106, i64 %107
  %109 = sub nsw i32 1, %.01316.i65
  %110 = zext nneg i32 %109 to i64
  %111 = call i32 @dbgsysRecv(i32 noundef %105, ptr noundef nonnull %108, i64 noundef %110, i32 noundef 0) #13
  %112 = icmp slt i32 %111, 0
  br i1 %112, label %.thread87, label %113

113:                                              ; preds = %.lr.ph.i64
  %114 = icmp eq i32 %111, 0
  br i1 %114, label %118, label %115

115:                                              ; preds = %113
  %116 = add nuw nsw i32 %111, %.01316.i65
  %117 = icmp slt i32 %116, 1
  br i1 %117, label %.lr.ph.i64, label %recv_fully.exit67, !llvm.loop !15

118:                                              ; preds = %113
  %119 = icmp eq i32 %.01316.i65, 0
  br i1 %119, label %120, label %.thread87

120:                                              ; preds = %118
  call fastcc void @setLastError(i32 noundef 202, ptr noundef nonnull @.str.41)
  br label %148

.thread87:                                        ; preds = %.lr.ph.i64, %118
  call fastcc void @setLastError(i32 noundef 202, ptr noundef nonnull @.str.42)
  br label %148

recv_fully.exit67:                                ; preds = %115, %recv_fully.exit59
  %121 = load i32, ptr %3, align 4
  %122 = add i32 %121, -11
  %123 = icmp slt i32 %122, 0
  br i1 %123, label %124, label %125

124:                                              ; preds = %recv_fully.exit67
  call fastcc void @setLastError(i32 noundef 0, ptr noundef nonnull @.str.43)
  br label %148

125:                                              ; preds = %recv_fully.exit67
  %126 = icmp eq i32 %122, 0
  br i1 %126, label %127, label %129

127:                                              ; preds = %125
  %128 = getelementptr inbounds i8, ptr %1, i64 16
  store ptr null, ptr %128, align 8
  br label %148

129:                                              ; preds = %125
  %130 = load ptr, ptr @callback, align 8
  %131 = load ptr, ptr %130, align 8
  %132 = call ptr %131(i32 noundef %122) #13
  %133 = getelementptr inbounds i8, ptr %1, i64 16
  store ptr %132, ptr %133, align 8
  %134 = icmp eq ptr %132, null
  br i1 %134, label %135, label %136

135:                                              ; preds = %129
  call fastcc void @setLastError(i32 noundef 110, ptr noundef nonnull @.str.8)
  br label %148

136:                                              ; preds = %129
  %137 = load i32, ptr @socketFD, align 4
  %138 = call fastcc i32 @recv_fully(i32 noundef %137, ptr noundef nonnull %132, i32 noundef %122)
  %139 = icmp slt i32 %138, %122
  br i1 %139, label %140, label %148

140:                                              ; preds = %136
  %141 = load ptr, ptr @callback, align 8
  %142 = getelementptr inbounds i8, ptr %141, i64 8
  %143 = load ptr, ptr %142, align 8
  %144 = load ptr, ptr %133, align 8
  call void %143(ptr noundef %144) #13
  %145 = icmp eq i32 %138, 0
  br i1 %145, label %146, label %147

146:                                              ; preds = %140
  call fastcc void @setLastError(i32 noundef 202, ptr noundef nonnull @.str.41)
  br label %148

147:                                              ; preds = %140
  call fastcc void @setLastError(i32 noundef 202, ptr noundef nonnull @.str.42)
  br label %148

148:                                              ; preds = %136, %127, %147, %146, %135, %124, %.thread87, %120, %.thread83, %104, %.thread79, %88, %.thread73, %69, %.thread, %51, %32, %31, %setLastError.exit
  %.0 = phi i32 [ 103, %setLastError.exit ], [ 0, %31 ], [ 202, %32 ], [ 202, %51 ], [ 202, %.thread ], [ 202, %69 ], [ 202, %.thread73 ], [ 202, %88 ], [ 202, %.thread79 ], [ 202, %124 ], [ 110, %135 ], [ 202, %146 ], [ 202, %147 ], [ 202, %104 ], [ 202, %.thread83 ], [ 202, %120 ], [ 202, %.thread87 ], [ 0, %127 ], [ 0, %136 ]
  ret i32 %.0
}